(dp0
S'test_client_1'
p1
(dp2
S'services'
p3
(lp4
S'afs'
p5
aS'zephyr'
p6
asS'client_secret'
p7
S'yGNu0CPmMJqFMvsGvjytbPo6/1sy3cCNQzM+8jTAZCiIj5J+52dE+A=='
p8
sS'client_id'
p9
g1
sS'_redirect_uris'
p10
(lp11
S'http://localhost:5001/callback/ok_server'
p12
ass.